; Function Attrs: mustprogress uwtable
define hidden noundef nonnull align 8 dereferenceable(288) ptr @_ZN4perf10Regression10addMomentsEPNS_8TestBaseERKNSt7__cxx1112basic_stringIcSt11char_traitsIcESaIcEEERKN2cv7MomentsEdNS_10ERROR_TYPEE(ptr noundef writeonly %0, ptr noundef nonnull align 8 dereferenceable(32) %1, ptr noundef nonnull align 8 dereferenceable(192) %2, double noundef %3, i32 noundef %4) local_unnamed_addr #5 align 2 personality ptr @__gxx_personality_v0 {
  %6 = alloca %"class.cv::Mat", align 8
  %7 = alloca %"class.cv::_InputArray", align 8
  call void @llvm.lifetime.start.p0(i64 96, ptr nonnull %6) #39
  call void @_ZN2cv3MatC1EiiiPvm(ptr noundef nonnull align 8 dereferenceable(96) %6, i32 noundef 1, i32 noundef 24, i32 noundef 6, ptr noundef nonnull %2, i64 noundef 0)
  call void @llvm.lifetime.start.p0(i64 24, ptr nonnull %7) #39
  %8 = getelementptr inbounds nuw i8, ptr %7, i64 16
  store i32 0, ptr %8, align 8, !tbaa !51
  %9 = getelementptr inbounds nuw i8, ptr %7, i64 20
  store i32 0, ptr %9, align 4, !tbaa !53
  store i32 16842752, ptr %7, align 8, !tbaa !54
  %10 = getelementptr inbounds nuw i8, ptr %7, i64 8
  store ptr %6, ptr %10, align 8, !tbaa !56
  %.not.i = icmp eq ptr %0, null
  br i1 %.not.i, label %13, label %11

11:                                               ; preds = %5
  %12 = getelementptr inbounds nuw i8, ptr %0, i64 232
  store i8 1, ptr %12, align 8, !tbaa !19
  br label %13

13:                                               ; preds = %11, %5
  %14 = load atomic i8, ptr @_ZGVZN4perf10Regression8instanceEvE6single acquire, align 8
  %15 = icmp eq i8 %14, 0
  br i1 %15, label %16, label %_ZN4perf10Regression8instanceEv.exit.i, !prof !18

16:                                               ; preds = %13
  %17 = call i32 @__cxa_guard_acquire(ptr nonnull @_ZGVZN4perf10Regression8instanceEvE6single) #39
  %.not.i.i = icmp eq i32 %17, 0
  br i1 %.not.i.i, label %_ZN4perf10Regression8instanceEv.exit.i, label %18

18:                                               ; preds = %16
  invoke void @_ZN4perf10RegressionC2Ev(ptr noundef nonnull align 8 dereferenceable(288) @_ZZN4perf10Regression8instanceEvE6single)
          to label %19 unwind label %21

19:                                               ; preds = %18
  %20 = call i32 @__cxa_atexit(ptr nonnull @_ZN4perf10RegressionD2Ev, ptr nonnull @_ZZN4perf10Regression8instanceEvE6single, ptr nonnull @__dso_handle) #39
  call void @__cxa_guard_release(ptr nonnull @_ZGVZN4perf10Regression8instanceEvE6single) #39
  br label %_ZN4perf10Regression8instanceEv.exit.i

21:                                               ; preds = %18
  %22 = landingpad { ptr, i32 }
          cleanup
  call void @__cxa_guard_abort(ptr nonnull @_ZGVZN4perf10Regression8instanceEvE6single) #39
  br label %.body

_ZN4perf10Regression8instanceEv.exit.i:           ; preds = %19, %16, %13
  %23 = invoke noundef nonnull align 8 dereferenceable(288) ptr @_ZN4perf10RegressionclERKNSt7__cxx1112basic_stringIcSt11char_traitsIcESaIcEEERKN2cv11_InputArrayEdNS_10ERROR_TYPEE(ptr noundef nonnull align 8 dereferenceable(288) @_ZZN4perf10Regression8instanceEvE6single, ptr noundef nonnull align 8 dereferenceable(32) %1, ptr noundef nonnull align 8 dereferenceable(24) %7, double noundef %3, i32 noundef %4)
          to label %_ZN4perf10Regression3addEPNS_8TestBaseERKNSt7__cxx1112basic_stringIcSt11char_traitsIcESaIcEEERKN2cv11_InputArrayEdNS_10ERROR_TYPEE.exit unwind label %24

_ZN4perf10Regression3addEPNS_8TestBaseERKNSt7__cxx1112basic_stringIcSt11char_traitsIcESaIcEEERKN2cv11_InputArrayEdNS_10ERROR_TYPEE.exit: ; preds = %_ZN4perf10Regression8instanceEv.exit.i
  call void @llvm.lifetime.end.p0(i64 24, ptr nonnull %7) #39
  call void @_ZN2cv3MatD1Ev(ptr noundef nonnull align 8 dereferenceable(96) %6) #39
  call void @llvm.lifetime.end.p0(i64 96, ptr nonnull %6) #39
  ret ptr @_ZZN4perf10Regression8instanceEvE6single

24:                                               ; preds = %_ZN4perf10Regression8instanceEv.exit.i
  %25 = landingpad { ptr, i32 }
          cleanup
  br label %.body

.body:                                            ; preds = %24, %21
  %.pn = phi { ptr, i32 } [ %25, %24 ], [ %22, %21 ]
  call void @llvm.lifetime.end.p0(i64 24, ptr nonnull %7) #39
  call void @_ZN2cv3MatD1Ev(ptr noundef nonnull align 8 dereferenceable(96) %6) #39
  call void @llvm.lifetime.end.p0(i64 96, ptr nonnull %6) #39
  resume { ptr, i32 } %.pn
}